; Function Attrs: mustprogress nounwind uwtable
define dso_local void @_ZN4node4quic7Session12ResumeStreamEl(ptr nocapture noundef nonnull align 8 dereferenceable(2616) %this, i64 noundef %id) local_unnamed_addr #5 align 2 {
entry:
  %send_scope_depth_.i = getelementptr inbounds i8, ptr %this, i64 2488
  %0 = load i64, ptr %send_scope_depth_.i, align 8
  %inc.i = add i64 %0, 1
  store i64 %inc.i, ptr %send_scope_depth_.i, align 8
  %application_ = getelementptr inbounds i8, ptr %this, i64 2136
  %1 = load ptr, ptr %application_, align 8
  %vtable = load ptr, ptr %1, align 8
  %vfn = getelementptr inbounds i8, ptr %vtable, i64 104
  %2 = load ptr, ptr %vfn, align 8
  tail call void %2(ptr noundef nonnull align 8 dereferenceable(16) %1, i64 noundef %id) #28
  %3 = load i64, ptr %send_scope_depth_.i, align 8
  %dec.i = add i64 %3, -1
  store i64 %dec.i, ptr %send_scope_depth_.i, align 8
  %cmp.i = icmp eq i64 %dec.i, 0
  br i1 %cmp.i, label %land.lhs.true.i, label %_ZN4node4quic7Session20SendPendingDataScopeD2Ev.exit

land.lhs.true.i:                                  ; preds = %entry
  %realm_.i.i.i = getelementptr inbounds i8, ptr %this, i64 16
  %4 = load ptr, ptr %realm_.i.i.i, align 8
  %env_.i.i.i.i = getelementptr inbounds i8, ptr %4, i64 176
  %5 = load ptr, ptr %env_.i.i.i.i, align 8
  %call2.i.i = tail call noundef zeroext i1 @_ZN4node4quic19NgTcp2CallbackScope18in_ngtcp2_callbackEPNS_11EnvironmentE(ptr noundef %5) #28
  br i1 %call2.i.i, label %_ZN4node4quic7Session20SendPendingDataScopeD2Ev.exit, label %land.lhs.true.i.i

land.lhs.true.i.i:                                ; preds = %land.lhs.true.i
  %ptr_.i.i.i.i = getelementptr inbounds i8, ptr %this, i64 128
  %6 = load ptr, ptr %ptr_.i.i.i.i, align 8
  %destroyed.i.i.i = getelementptr inbounds i8, ptr %6, i64 8
  %7 = load i8, ptr %destroyed.i.i.i, align 8
  %tobool.i.not.i.i = icmp eq i8 %7, 0
  br i1 %tobool.i.not.i.i, label %land.lhs.true4.i.i, label %_ZN4node4quic7Session20SendPendingDataScopeD2Ev.exit

land.lhs.true4.i.i:                               ; preds = %land.lhs.true.i.i
  %connection_.i.i.i.i = getelementptr inbounds i8, ptr %this, i64 1768
  %8 = load ptr, ptr %connection_.i.i.i.i, align 8
  %call2.i.i.i = tail call i32 @ngtcp2_conn_is_in_draining_period(ptr noundef %8) #28
  %tobool.i1.not.i.i = icmp eq i32 %call2.i.i.i, 0
  br i1 %tobool.i1.not.i.i, label %land.lhs.true6.i.i, label %_ZN4node4quic7Session20SendPendingDataScopeD2Ev.exit

land.lhs.true6.i.i:                               ; preds = %land.lhs.true4.i.i
  %9 = load ptr, ptr %connection_.i.i.i.i, align 8
  %call2.i3.i.i = tail call i32 @ngtcp2_conn_is_in_closing_period(ptr noundef %9) #28
  %tobool.i4.not.i.i = icmp ne i32 %call2.i3.i.i, 0
  %endpoint_.i.i = getelementptr inbounds i8, ptr %this, i64 1776
  %10 = load ptr, ptr %endpoint_.i.i, align 8
  %cmp.i.i.not.i = icmp eq ptr %10, null
  %or.cond = select i1 %tobool.i4.not.i.i, i1 true, i1 %cmp.i.i.not.i
  br i1 %or.cond, label %_ZN4node4quic7Session20SendPendingDataScopeD2Ev.exit, label %if.then.i

if.then.i:                                        ; preds = %land.lhs.true6.i.i
  %11 = load ptr, ptr %application_, align 8
  tail call void @_ZN4node4quic7Session11Application15SendPendingDataEv(ptr noundef nonnull align 8 dereferenceable(16) %11) #28
  br label %_ZN4node4quic7Session20SendPendingDataScopeD2Ev.exit

_ZN4node4quic7Session20SendPendingDataScopeD2Ev.exit: ; preds = %entry, %land.lhs.true.i, %land.lhs.true.i.i, %land.lhs.true4.i.i, %land.lhs.true6.i.i, %if.then.i
  ret void
}